; Function Attrs: nounwind uwtable
define internal fastcc range(i32 -1, 1) i32 @register_dir() unnamed_addr #2 {
  %1 = load ptr, ptr @the_repository, align 8, !tbaa !36
  %2 = getelementptr inbounds nuw i8, ptr %1, i64 240
  %3 = load ptr, ptr %2, align 8, !tbaa !77
  %.not.i = icmp eq ptr %3, null
  br i1 %.not.i, label %4, label %6

4:                                                ; preds = %0
  %5 = tail call fastcc ptr @_(ptr noundef nonnull @.str.126)
  tail call void (ptr, ...) @die(ptr noundef %5) #17
  unreachable

6:                                                ; preds = %0
  %7 = tail call i32 (ptr, ...) @run_git(ptr noundef nonnull @.str.127, ptr noundef nonnull @.str.128, ptr noundef nonnull @.str.129, ptr noundef nonnull @.str.130, ptr noundef nonnull @.str.131, ptr noundef nonnull %3, ptr noundef null)
  %.not23 = icmp eq i32 %7, 0
  br i1 %.not23, label %add_or_remove_enlistment.exit.thread, label %add_or_remove_enlistment.exit

add_or_remove_enlistment.exit:                    ; preds = %6
  %8 = load ptr, ptr @the_repository, align 8, !tbaa !36
  %9 = getelementptr inbounds nuw i8, ptr %8, i64 240
  %10 = load ptr, ptr %9, align 8, !tbaa !77
  %11 = tail call i32 (ptr, ...) @run_git(ptr noundef nonnull @.str.127, ptr noundef nonnull @.str.128, ptr noundef nonnull @.str.132, ptr noundef nonnull @.str.134, ptr noundef nonnull @.str.131, ptr noundef %10, ptr noundef null)
  %.not = icmp eq i32 %11, 0
  br i1 %.not, label %add_or_remove_enlistment.exit.thread, label %12

12:                                               ; preds = %add_or_remove_enlistment.exit
  %13 = load i32, ptr @git_gettext_enabled, align 4, !tbaa !20
  %.not4.i = icmp eq i32 %13, 0
  br i1 %.not4.i, label %have_fsmonitor_support.exit.thread.sink.split, label %have_fsmonitor_support.exit.thread.sink.split.sink.split

add_or_remove_enlistment.exit.thread:             ; preds = %6, %add_or_remove_enlistment.exit
  %14 = tail call fastcc i32 @set_recommended_config(i32 noundef 0)
  %.not1 = icmp eq i32 %14, 0
  br i1 %.not1, label %17, label %15

15:                                               ; preds = %add_or_remove_enlistment.exit.thread
  %16 = load i32, ptr @git_gettext_enabled, align 4, !tbaa !20
  %.not4.i6 = icmp eq i32 %16, 0
  br i1 %.not4.i6, label %have_fsmonitor_support.exit.thread.sink.split, label %have_fsmonitor_support.exit.thread.sink.split.sink.split

17:                                               ; preds = %add_or_remove_enlistment.exit.thread
  %18 = tail call i32 (ptr, ...) @run_git(ptr noundef nonnull @.str.135, ptr noundef nonnull @.str.136, ptr noundef null, ptr noundef null)
  %.not2 = icmp eq i32 %18, 0
  br i1 %.not2, label %23, label %19

19:                                               ; preds = %17
  %20 = load i32, ptr @git_gettext_enabled, align 4, !tbaa !20
  %.not4.i9 = icmp eq i32 %20, 0
  br i1 %.not4.i9, label %_.exit11, label %21

21:                                               ; preds = %19
  %22 = tail call ptr @dcgettext(ptr noundef null, ptr noundef nonnull @.str.124, i32 noundef 5) #18
  br label %_.exit11

_.exit11:                                         ; preds = %19, %21
  %.0.i10 = phi ptr [ %22, %21 ], [ @.str.124, %19 ]
  tail call void (ptr, ...) @warning(ptr noundef %.0.i10) #18
  br label %23

23:                                               ; preds = %_.exit11, %17
  %24 = tail call i32 @fsmonitor_ipc__is_supported() #18
  %.not.i12 = icmp eq i32 %24, 0
  br i1 %.not.i12, label %have_fsmonitor_support.exit.thread, label %have_fsmonitor_support.exit

have_fsmonitor_support.exit:                      ; preds = %23
  %25 = load ptr, ptr @the_repository, align 8, !tbaa !36
  %26 = tail call i32 @fsm_settings__get_reason(ptr noundef %25) #18
  %.not24 = icmp eq i32 %26, 1
  br i1 %.not24, label %27, label %have_fsmonitor_support.exit.thread

27:                                               ; preds = %have_fsmonitor_support.exit
  %28 = tail call i32 @fsmonitor_ipc__get_state() #18
  %.not.i13 = icmp eq i32 %28, 0
  br i1 %.not.i13, label %have_fsmonitor_support.exit.thread, label %start_fsmonitor_daemon.exit

start_fsmonitor_daemon.exit:                      ; preds = %27
  %29 = tail call i32 (ptr, ...) @run_git(ptr noundef nonnull @.str.138, ptr noundef nonnull @.str.136, ptr noundef null)
  %.not4 = icmp eq i32 %29, 0
  br i1 %.not4, label %have_fsmonitor_support.exit.thread, label %30

30:                                               ; preds = %start_fsmonitor_daemon.exit
  %31 = load i32, ptr @git_gettext_enabled, align 4, !tbaa !20
  %.not4.i15 = icmp eq i32 %31, 0
  br i1 %.not4.i15, label %have_fsmonitor_support.exit.thread.sink.split, label %have_fsmonitor_support.exit.thread.sink.split.sink.split

have_fsmonitor_support.exit.thread.sink.split.sink.split: ; preds = %30, %15, %12
  %.str.125.sink = phi ptr [ @.str.122, %12 ], [ @.str.123, %15 ], [ @.str.125, %30 ]
  %32 = tail call ptr @dcgettext(ptr noundef null, ptr noundef nonnull %.str.125.sink, i32 noundef 5) #18
  br label %have_fsmonitor_support.exit.thread.sink.split

have_fsmonitor_support.exit.thread.sink.split:    ; preds = %have_fsmonitor_support.exit.thread.sink.split.sink.split, %30, %15, %12
  %.0.i16.sink = phi ptr [ @.str.122, %12 ], [ @.str.123, %15 ], [ @.str.125, %30 ], [ %32, %have_fsmonitor_support.exit.thread.sink.split.sink.split ]
  %33 = tail call i32 (ptr, ...) @error(ptr noundef %.0.i16.sink) #18
  br label %have_fsmonitor_support.exit.thread

have_fsmonitor_support.exit.thread:               ; preds = %have_fsmonitor_support.exit.thread.sink.split, %27, %23, %have_fsmonitor_support.exit, %start_fsmonitor_daemon.exit
  %.0 = phi i32 [ 0, %start_fsmonitor_daemon.exit ], [ 0, %have_fsmonitor_support.exit ], [ 0, %23 ], [ 0, %27 ], [ -1, %have_fsmonitor_support.exit.thread.sink.split ]
  ret i32 %.0
}